(dp1
S'A'
(S'isButton'
p2
I1
tp3
sS'right'
p4
(S'isAxis'
p5
I0
I1
tp6
sS'up'
p7
(g5
I1
I-1
tp8
sS'L'
(g2
I4
tp9
sS'down'
p10
(g5
I1
I1
tp11
sS'start'
p12
(g2
I9
tp13
sS'B'
(g2
I2
tp14
sS'Y'
(g2
I3
tp15
sS'X'
(g2
I0
tp16
sS'select'
p17
(g2
I8
tp18
sS'left'
p19
(g5
I0
I-1
tp20
s.